target datalayout = "e-m:e-p270:32:32-p271:32:32-p272:64:64-i64:64-i128:128-f80:128-n8:16:32:64-S128"
target triple = "x86_64-pc-linux-gnu"

%struct._zend_refcounted_h = type { i32, %union.anon }
%union.anon = type { i32 }
%struct._zval_struct = type { %union._zend_value, %union.anon.0, %union.anon.3 }
%union._zend_value = type { i64 }
%union.anon.0 = type { i32 }
%union.anon.3 = type { i32 }
%struct.zend_get_gc_buffer = type { ptr, ptr, ptr }
%struct._zend_generator = type { %struct._zend_object, ptr, ptr, %struct._zval_struct, %struct._zval_struct, %struct._zval_struct, ptr, i64, %struct._zval_struct, %struct._zend_generator_node, %struct._zend_execute_data, ptr, i8 }
%struct._zend_object = type { %struct._zend_refcounted_h, i32, i32, ptr, ptr, ptr, [1 x %struct._zval_struct] }
%struct._zend_generator_node = type { ptr, i32, %union.anon.4, %union.anon.5 }
%union.anon.4 = type { ptr }
%union.anon.5 = type { ptr }
%struct._zend_execute_data = type { ptr, ptr, ptr, ptr, %struct._zval_struct, ptr, ptr, ptr, ptr }
%struct.anon.1 = type { i8, i8, %union.anon.2 }
%union.anon.2 = type { i16 }
%struct.anon.9 = type { i8, [3 x i8], i32, ptr, ptr, ptr, i32, i32, ptr, ptr, ptr, ptr, i32, ptr }

; Function Attrs: alwaysinline nounwind uwtable
define internal void @zend_get_gc_buffer_use(ptr noundef %0, ptr noundef %1, ptr noundef %2) #2 {
  %4 = alloca ptr, align 8
  %5 = alloca ptr, align 8
  %6 = alloca ptr, align 8
  store ptr %0, ptr %4, align 8, !tbaa !34
  store ptr %1, ptr %5, align 8, !tbaa !137
  store ptr %2, ptr %6, align 8, !tbaa !169
  %7 = load ptr, ptr %4, align 8, !tbaa !34
  %8 = getelementptr inbounds nuw %struct.zend_get_gc_buffer, ptr %7, i32 0, i32 2
  %9 = load ptr, ptr %8, align 8, !tbaa !178
  %10 = load ptr, ptr %5, align 8, !tbaa !137
  store ptr %9, ptr %10, align 8, !tbaa !36
  %11 = load ptr, ptr %4, align 8, !tbaa !34
  %12 = getelementptr inbounds nuw %struct.zend_get_gc_buffer, ptr %11, i32 0, i32 0
  %13 = load ptr, ptr %12, align 8, !tbaa !74
  %14 = load ptr, ptr %4, align 8, !tbaa !34
  %15 = getelementptr inbounds nuw %struct.zend_get_gc_buffer, ptr %14, i32 0, i32 2
  %16 = load ptr, ptr %15, align 8, !tbaa !178
  %17 = ptrtoint ptr %13 to i64
  %18 = ptrtoint ptr %16 to i64
  %19 = sub i64 %17, %18
  %20 = sdiv exact i64 %19, 16
  %21 = trunc i64 %20 to i32
  %22 = load ptr, ptr %6, align 8, !tbaa !169
  store i32 %21, ptr %22, align 4, !tbaa !32
  ret void
}

; Function Attrs: alwaysinline nounwind uwtable
define internal void @zend_get_gc_buffer_add_obj(ptr noundef %0, ptr noundef %1) #2 {
  %3 = alloca ptr, align 8
  %4 = alloca ptr, align 8
  %5 = alloca ptr, align 8
  store ptr %0, ptr %3, align 8, !tbaa !34
  store ptr %1, ptr %4, align 8, !tbaa !59
  %6 = load ptr, ptr %4, align 8, !tbaa !59
  %7 = icmp ne ptr %6, null
  call void @llvm.assume(i1 %7)
  %8 = load ptr, ptr %3, align 8, !tbaa !34
  %9 = getelementptr inbounds nuw %struct.zend_get_gc_buffer, ptr %8, i32 0, i32 0
  %10 = load ptr, ptr %9, align 8, !tbaa !74
  %11 = load ptr, ptr %3, align 8, !tbaa !34
  %12 = getelementptr inbounds nuw %struct.zend_get_gc_buffer, ptr %11, i32 0, i32 1
  %13 = load ptr, ptr %12, align 8, !tbaa !76
  %14 = icmp eq ptr %10, %13
  %15 = xor i1 %14, true
  %16 = xor i1 %15, true
  %17 = zext i1 %16 to i32
  %18 = sext i32 %17 to i64
  %19 = call i64 @llvm.expect.i64(i64 %18, i64 0)
  %20 = icmp ne i64 %19, 0
  br i1 %20, label %21, label %23

21:                                               ; preds = %2
  %22 = load ptr, ptr %3, align 8, !tbaa !34
  call void @zend_get_gc_buffer_grow(ptr noundef %22)
  br label %23

23:                                               ; preds = %21, %2
  br label %24

24:                                               ; preds = %23
  call void @llvm.lifetime.start.p0(i64 8, ptr %5) #11
  %25 = load ptr, ptr %3, align 8, !tbaa !34
  %26 = getelementptr inbounds nuw %struct.zend_get_gc_buffer, ptr %25, i32 0, i32 0
  %27 = load ptr, ptr %26, align 8, !tbaa !74
  store ptr %27, ptr %5, align 8, !tbaa !36
  %28 = load ptr, ptr %4, align 8, !tbaa !59
  %29 = load ptr, ptr %5, align 8, !tbaa !36
  %30 = getelementptr inbounds nuw %struct._zval_struct, ptr %29, i32 0, i32 0
  store ptr %28, ptr %30, align 8, !tbaa !26
  %31 = load ptr, ptr %5, align 8, !tbaa !36
  %32 = getelementptr inbounds nuw %struct._zval_struct, ptr %31, i32 0, i32 1
  store i32 776, ptr %32, align 8, !tbaa !26
  call void @llvm.lifetime.end.p0(i64 8, ptr %5) #11
  br label %33

33:                                               ; preds = %24
  %34 = load ptr, ptr %3, align 8, !tbaa !34
  %35 = getelementptr inbounds nuw %struct.zend_get_gc_buffer, ptr %34, i32 0, i32 0
  %36 = load ptr, ptr %35, align 8, !tbaa !74
  %37 = getelementptr inbounds nuw %struct._zval_struct, ptr %36, i32 1
  store ptr %37, ptr %35, align 8, !tbaa !74
  ret void
}

; Function Attrs: alwaysinline nounwind uwtable
define internal void @zend_get_gc_buffer_add_zval(ptr noundef %0, ptr noundef %1) #2 {
  %3 = alloca ptr, align 8
  %4 = alloca ptr, align 8
  %5 = alloca ptr, align 8
  %6 = alloca ptr, align 8
  %7 = alloca ptr, align 8
  %8 = alloca i32, align 4
  store ptr %0, ptr %3, align 8, !tbaa !34
  store ptr %1, ptr %4, align 8, !tbaa !36
  %9 = load ptr, ptr %4, align 8, !tbaa !36
  %10 = getelementptr inbounds nuw %struct._zval_struct, ptr %9, i32 0, i32 1
  %11 = getelementptr inbounds nuw %struct.anon.1, ptr %10, i32 0, i32 1
  %12 = load i8, ptr %11, align 1, !tbaa !26
  %13 = zext i8 %12 to i32
  %14 = icmp ne i32 %13, 0
  br i1 %14, label %15, label %57

15:                                               ; preds = %2
  %16 = load ptr, ptr %3, align 8, !tbaa !34
  %17 = getelementptr inbounds nuw %struct.zend_get_gc_buffer, ptr %16, i32 0, i32 0
  %18 = load ptr, ptr %17, align 8, !tbaa !74
  %19 = load ptr, ptr %3, align 8, !tbaa !34
  %20 = getelementptr inbounds nuw %struct.zend_get_gc_buffer, ptr %19, i32 0, i32 1
  %21 = load ptr, ptr %20, align 8, !tbaa !76
  %22 = icmp eq ptr %18, %21
  %23 = xor i1 %22, true
  %24 = xor i1 %23, true
  %25 = zext i1 %24 to i32
  %26 = sext i32 %25 to i64
  %27 = call i64 @llvm.expect.i64(i64 %26, i64 0)
  %28 = icmp ne i64 %27, 0
  br i1 %28, label %29, label %31

29:                                               ; preds = %15
  %30 = load ptr, ptr %3, align 8, !tbaa !34
  call void @zend_get_gc_buffer_grow(ptr noundef %30)
  br label %31

31:                                               ; preds = %29, %15
  br label %32

32:                                               ; preds = %31
  call void @llvm.lifetime.start.p0(i64 8, ptr %5) #11
  %33 = load ptr, ptr %3, align 8, !tbaa !34
  %34 = getelementptr inbounds nuw %struct.zend_get_gc_buffer, ptr %33, i32 0, i32 0
  %35 = load ptr, ptr %34, align 8, !tbaa !74
  store ptr %35, ptr %5, align 8, !tbaa !36
  call void @llvm.lifetime.start.p0(i64 8, ptr %6) #11
  %36 = load ptr, ptr %4, align 8, !tbaa !36
  store ptr %36, ptr %6, align 8, !tbaa !36
  call void @llvm.lifetime.start.p0(i64 8, ptr %7) #11
  %37 = load ptr, ptr %6, align 8, !tbaa !36
  %38 = getelementptr inbounds nuw %struct._zval_struct, ptr %37, i32 0, i32 0
  %39 = load ptr, ptr %38, align 8, !tbaa !26
  store ptr %39, ptr %7, align 8, !tbaa !77
  call void @llvm.lifetime.start.p0(i64 4, ptr %8) #11
  %40 = load ptr, ptr %6, align 8, !tbaa !36
  %41 = getelementptr inbounds nuw %struct._zval_struct, ptr %40, i32 0, i32 1
  %42 = load i32, ptr %41, align 8, !tbaa !26
  store i32 %42, ptr %8, align 4, !tbaa !32
  br label %43

43:                                               ; preds = %32
  %44 = load ptr, ptr %7, align 8, !tbaa !77
  %45 = load ptr, ptr %5, align 8, !tbaa !36
  %46 = getelementptr inbounds nuw %struct._zval_struct, ptr %45, i32 0, i32 0
  store ptr %44, ptr %46, align 8, !tbaa !26
  %47 = load i32, ptr %8, align 4, !tbaa !32
  %48 = load ptr, ptr %5, align 8, !tbaa !36
  %49 = getelementptr inbounds nuw %struct._zval_struct, ptr %48, i32 0, i32 1
  store i32 %47, ptr %49, align 8, !tbaa !26
  br label %50

50:                                               ; preds = %43
  br label %51

51:                                               ; preds = %50
  call void @llvm.lifetime.end.p0(i64 4, ptr %8) #11
  call void @llvm.lifetime.end.p0(i64 8, ptr %7) #11
  call void @llvm.lifetime.end.p0(i64 8, ptr %6) #11
  call void @llvm.lifetime.end.p0(i64 8, ptr %5) #11
  br label %52

52:                                               ; preds = %51
  %53 = load ptr, ptr %3, align 8, !tbaa !34
  %54 = getelementptr inbounds nuw %struct.zend_get_gc_buffer, ptr %53, i32 0, i32 0
  %55 = load ptr, ptr %54, align 8, !tbaa !74
  %56 = getelementptr inbounds nuw %struct._zval_struct, ptr %55, i32 1
  store ptr %56, ptr %54, align 8, !tbaa !74
  br label %57

57:                                               ; preds = %52, %2
  ret void
}

; Function Attrs: nounwind uwtable
define internal ptr @zend_generator_get_gc(ptr noundef %0, ptr noundef %1, ptr noundef %2) #0 {
  %4 = alloca ptr, align 8
  %5 = alloca ptr, align 8
  %6 = alloca ptr, align 8
  %7 = alloca ptr, align 8
  %8 = alloca ptr, align 8
  %9 = alloca ptr, align 8
  %10 = alloca ptr, align 8
  %11 = alloca i32, align 4
  %12 = alloca ptr, align 8
  %13 = alloca ptr, align 8
  store ptr %0, ptr %5, align 8, !tbaa !59
  store ptr %1, ptr %6, align 8, !tbaa !137
  store ptr %2, ptr %7, align 8, !tbaa !169
  call void @llvm.lifetime.start.p0(i64 8, ptr %8) #11
  %14 = load ptr, ptr %5, align 8, !tbaa !59
  store ptr %14, ptr %8, align 8, !tbaa !4
  call void @llvm.lifetime.start.p0(i64 8, ptr %9) #11
  %15 = load ptr, ptr %8, align 8, !tbaa !4
  %16 = getelementptr inbounds nuw %struct._zend_generator, ptr %15, i32 0, i32 1
  %17 = load ptr, ptr %16, align 8, !tbaa !30
  store ptr %17, ptr %9, align 8, !tbaa !9
  %18 = load ptr, ptr %9, align 8, !tbaa !9
  %19 = icmp ne ptr %18, null
  br i1 %19, label %59, label %20

20:                                               ; preds = %3
  %21 = load ptr, ptr %8, align 8, !tbaa !4
  %22 = getelementptr inbounds nuw %struct._zend_generator, ptr %21, i32 0, i32 11
  %23 = load ptr, ptr %22, align 8, !tbaa !149
  %24 = getelementptr inbounds nuw %struct.anon.9, ptr %23, i32 0, i32 2
  %25 = load i32, ptr %24, align 4, !tbaa !26
  %26 = and i32 %25, 4194304
  %27 = icmp ne i32 %26, 0
  %28 = xor i1 %27, true
  %29 = xor i1 %28, true
  %30 = zext i1 %29 to i32
  %31 = sext i32 %30 to i64
  %32 = call i64 @llvm.expect.i64(i64 %31, i64 0)
  %33 = icmp ne i64 %32, 0
  br i1 %33, label %34, label %53

34:                                               ; preds = %20
  call void @llvm.lifetime.start.p0(i64 8, ptr %10) #11
  %35 = call ptr @zend_get_gc_buffer_create()
  store ptr %35, ptr %10, align 8, !tbaa !34
  %36 = load ptr, ptr %10, align 8, !tbaa !34
  %37 = load ptr, ptr %8, align 8, !tbaa !4
  %38 = getelementptr inbounds nuw %struct._zend_generator, ptr %37, i32 0, i32 3
  call void @zend_get_gc_buffer_add_zval(ptr noundef %36, ptr noundef %38)
  %39 = load ptr, ptr %10, align 8, !tbaa !34
  %40 = load ptr, ptr %8, align 8, !tbaa !4
  %41 = getelementptr inbounds nuw %struct._zend_generator, ptr %40, i32 0, i32 4
  call void @zend_get_gc_buffer_add_zval(ptr noundef %39, ptr noundef %41)
  %42 = load ptr, ptr %10, align 8, !tbaa !34
  %43 = load ptr, ptr %8, align 8, !tbaa !4
  %44 = getelementptr inbounds nuw %struct._zend_generator, ptr %43, i32 0, i32 5
  call void @zend_get_gc_buffer_add_zval(ptr noundef %42, ptr noundef %44)
  %45 = load ptr, ptr %10, align 8, !tbaa !34
  %46 = load ptr, ptr %8, align 8, !tbaa !4
  %47 = getelementptr inbounds nuw %struct._zend_generator, ptr %46, i32 0, i32 11
  %48 = load ptr, ptr %47, align 8, !tbaa !149
  %49 = getelementptr inbounds i8, ptr %48, i64 -56
  call void @zend_get_gc_buffer_add_obj(ptr noundef %45, ptr noundef %49)
  %50 = load ptr, ptr %10, align 8, !tbaa !34
  %51 = load ptr, ptr %6, align 8, !tbaa !137
  %52 = load ptr, ptr %7, align 8, !tbaa !169
  call void @zend_get_gc_buffer_use(ptr noundef %50, ptr noundef %51, ptr noundef %52)
  call void @llvm.lifetime.end.p0(i64 8, ptr %10) #11
  br label %58

53:                                               ; preds = %20
  %54 = load ptr, ptr %8, align 8, !tbaa !4
  %55 = getelementptr inbounds nuw %struct._zend_generator, ptr %54, i32 0, i32 3
  %56 = load ptr, ptr %6, align 8, !tbaa !137
  store ptr %55, ptr %56, align 8, !tbaa !36
  %57 = load ptr, ptr %7, align 8, !tbaa !169
  store i32 3, ptr %57, align 4, !tbaa !32
  br label %58

58:                                               ; preds = %53, %34
  store ptr null, ptr %4, align 8
  store i32 1, ptr %11, align 4
  br label %78

59:                                               ; preds = %3
  %60 = load ptr, ptr %8, align 8, !tbaa !4
  %61 = getelementptr inbounds nuw %struct._zend_generator, ptr %60, i32 0, i32 12
  %62 = load i8, ptr %61, align 8, !tbaa !81
  %63 = zext i8 %62 to i32
  %64 = and i32 %63, 1
  %65 = icmp ne i32 %64, 0
  br i1 %65, label %66, label %69

66:                                               ; preds = %59
  %67 = load ptr, ptr %6, align 8, !tbaa !137
  store ptr null, ptr %67, align 8, !tbaa !36
  %68 = load ptr, ptr %7, align 8, !tbaa !169
  store i32 0, ptr %68, align 4, !tbaa !32
  store ptr null, ptr %4, align 8
  store i32 1, ptr %11, align 4
  br label %78

69:                                               ; preds = %59
  call void @llvm.lifetime.start.p0(i64 8, ptr %12) #11
  %70 = call ptr @zend_get_gc_buffer_create()
  store ptr %70, ptr %12, align 8, !tbaa !34
  call void @llvm.lifetime.start.p0(i64 8, ptr %13) #11
  %71 = load ptr, ptr %12, align 8, !tbaa !34
  %72 = load ptr, ptr %8, align 8, !tbaa !4
  %73 = call ptr @zend_generator_frame_gc(ptr noundef %71, ptr noundef %72)
  store ptr %73, ptr %13, align 8, !tbaa !72
  %74 = load ptr, ptr %12, align 8, !tbaa !34
  %75 = load ptr, ptr %6, align 8, !tbaa !137
  %76 = load ptr, ptr %7, align 8, !tbaa !169
  call void @zend_get_gc_buffer_use(ptr noundef %74, ptr noundef %75, ptr noundef %76)
  %77 = load ptr, ptr %13, align 8, !tbaa !72
  store ptr %77, ptr %4, align 8
  store i32 1, ptr %11, align 4
  call void @llvm.lifetime.end.p0(i64 8, ptr %13) #11
  call void @llvm.lifetime.end.p0(i64 8, ptr %12) #11
  br label %78

78:                                               ; preds = %69, %66, %58
  call void @llvm.lifetime.end.p0(i64 8, ptr %9) #11
  call void @llvm.lifetime.end.p0(i64 8, ptr %8) #11
  %79 = load ptr, ptr %4, align 8
  ret ptr %79
}