; Function Attrs: nounwind uwtable
define internal ptr @zend_generator_get_gc(ptr noundef %0, ptr noundef writeonly captures(none) initializes((0, 8)) %1, ptr noundef writeonly captures(none) initializes((0, 4)) %2) #0 {
  %4 = getelementptr inbounds nuw i8, ptr %0, i64 56
  %5 = load ptr, ptr %4, align 8, !tbaa !56
  %.not = icmp eq ptr %5, null
  br i1 %.not, label %6, label %83

6:                                                ; preds = %3
  %7 = getelementptr inbounds nuw i8, ptr %0, i64 264
  %8 = load ptr, ptr %7, align 8, !tbaa !140
  %9 = getelementptr inbounds nuw i8, ptr %8, i64 4
  %10 = load i32, ptr %9, align 4, !tbaa !24
  %11 = and i32 %10, 4194304
  %.not28 = icmp eq i32 %11, 0
  br i1 %.not28, label %81, label %12, !prof !58

12:                                               ; preds = %6
  %13 = tail call ptr @zend_get_gc_buffer_create() #11
  %14 = getelementptr inbounds nuw i8, ptr %0, i64 72
  %15 = getelementptr inbounds nuw i8, ptr %0, i64 80
  %16 = getelementptr inbounds nuw i8, ptr %0, i64 81
  %17 = load i8, ptr %16, align 1, !tbaa !24
  %.not.i32 = icmp eq i8 %17, 0
  %.pre36.pre.pre = load ptr, ptr %13, align 8, !tbaa !92
  br i1 %.not.i32, label %zend_get_gc_buffer_add_zval.exit33, label %18

18:                                               ; preds = %12
  %19 = getelementptr inbounds nuw i8, ptr %13, i64 8
  %20 = load ptr, ptr %19, align 8, !tbaa !93
  %21 = icmp eq ptr %.pre36.pre.pre, %20
  br i1 %21, label %22, label %23, !prof !26

22:                                               ; preds = %18
  tail call void @zend_get_gc_buffer_grow(ptr noundef nonnull %13) #11
  %.pre = load ptr, ptr %13, align 8, !tbaa !92
  br label %23

23:                                               ; preds = %22, %18
  %24 = phi ptr [ %.pre, %22 ], [ %.pre36.pre.pre, %18 ]
  %25 = load ptr, ptr %14, align 8, !tbaa !24
  %26 = load i32, ptr %15, align 8, !tbaa !24
  store ptr %25, ptr %24, align 8, !tbaa !24
  %27 = getelementptr inbounds nuw i8, ptr %24, i64 8
  store i32 %26, ptr %27, align 8, !tbaa !24
  %28 = load ptr, ptr %13, align 8, !tbaa !92
  %29 = getelementptr inbounds nuw i8, ptr %28, i64 16
  store ptr %29, ptr %13, align 8, !tbaa !92
  br label %zend_get_gc_buffer_add_zval.exit33

zend_get_gc_buffer_add_zval.exit33:               ; preds = %12, %23
  %.pre36.pre = phi ptr [ %.pre36.pre.pre, %12 ], [ %29, %23 ]
  %30 = getelementptr inbounds nuw i8, ptr %0, i64 88
  %31 = getelementptr inbounds nuw i8, ptr %0, i64 96
  %32 = getelementptr inbounds nuw i8, ptr %0, i64 97
  %33 = load i8, ptr %32, align 1, !tbaa !24
  %.not.i30 = icmp eq i8 %33, 0
  br i1 %.not.i30, label %zend_get_gc_buffer_add_zval.exit31, label %34

34:                                               ; preds = %zend_get_gc_buffer_add_zval.exit33
  %35 = getelementptr inbounds nuw i8, ptr %13, i64 8
  %36 = load ptr, ptr %35, align 8, !tbaa !93
  %37 = icmp eq ptr %.pre36.pre, %36
  br i1 %37, label %38, label %39, !prof !26

38:                                               ; preds = %34
  tail call void @zend_get_gc_buffer_grow(ptr noundef nonnull %13) #11
  %.pre34 = load ptr, ptr %13, align 8, !tbaa !92
  br label %39

39:                                               ; preds = %38, %34
  %40 = phi ptr [ %.pre34, %38 ], [ %.pre36.pre, %34 ]
  %41 = load ptr, ptr %30, align 8, !tbaa !24
  %42 = load i32, ptr %31, align 8, !tbaa !24
  store ptr %41, ptr %40, align 8, !tbaa !24
  %43 = getelementptr inbounds nuw i8, ptr %40, i64 8
  store i32 %42, ptr %43, align 8, !tbaa !24
  %44 = load ptr, ptr %13, align 8, !tbaa !92
  %45 = getelementptr inbounds nuw i8, ptr %44, i64 16
  store ptr %45, ptr %13, align 8, !tbaa !92
  br label %zend_get_gc_buffer_add_zval.exit31

zend_get_gc_buffer_add_zval.exit31:               ; preds = %zend_get_gc_buffer_add_zval.exit33, %39
  %.pre36 = phi ptr [ %.pre36.pre, %zend_get_gc_buffer_add_zval.exit33 ], [ %45, %39 ]
  %46 = getelementptr inbounds nuw i8, ptr %0, i64 104
  %47 = getelementptr inbounds nuw i8, ptr %0, i64 112
  %48 = getelementptr inbounds nuw i8, ptr %0, i64 113
  %49 = load i8, ptr %48, align 1, !tbaa !24
  %.not.i = icmp eq i8 %49, 0
  br i1 %.not.i, label %zend_get_gc_buffer_add_zval.exit, label %50

50:                                               ; preds = %zend_get_gc_buffer_add_zval.exit31
  %51 = getelementptr inbounds nuw i8, ptr %13, i64 8
  %52 = load ptr, ptr %51, align 8, !tbaa !93
  %53 = icmp eq ptr %.pre36, %52
  br i1 %53, label %54, label %55, !prof !26

54:                                               ; preds = %50
  tail call void @zend_get_gc_buffer_grow(ptr noundef nonnull %13) #11
  %.pre35 = load ptr, ptr %13, align 8, !tbaa !92
  br label %55

55:                                               ; preds = %54, %50
  %56 = phi ptr [ %.pre35, %54 ], [ %.pre36, %50 ]
  %57 = load ptr, ptr %46, align 8, !tbaa !24
  %58 = load i32, ptr %47, align 8, !tbaa !24
  store ptr %57, ptr %56, align 8, !tbaa !24
  %59 = getelementptr inbounds nuw i8, ptr %56, i64 8
  store i32 %58, ptr %59, align 8, !tbaa !24
  %60 = load ptr, ptr %13, align 8, !tbaa !92
  %61 = getelementptr inbounds nuw i8, ptr %60, i64 16
  store ptr %61, ptr %13, align 8, !tbaa !92
  br label %zend_get_gc_buffer_add_zval.exit

zend_get_gc_buffer_add_zval.exit:                 ; preds = %zend_get_gc_buffer_add_zval.exit31, %55
  %62 = phi ptr [ %.pre36, %zend_get_gc_buffer_add_zval.exit31 ], [ %61, %55 ]
  %63 = load ptr, ptr %7, align 8, !tbaa !140
  %64 = getelementptr inbounds i8, ptr %63, i64 -56
  %65 = getelementptr inbounds nuw i8, ptr %13, i64 8
  %66 = load ptr, ptr %65, align 8, !tbaa !93
  %67 = icmp eq ptr %62, %66
  br i1 %67, label %68, label %zend_get_gc_buffer_add_obj.exit, !prof !26

68:                                               ; preds = %zend_get_gc_buffer_add_zval.exit
  tail call void @zend_get_gc_buffer_grow(ptr noundef nonnull %13) #11
  %.pre37 = load ptr, ptr %13, align 8, !tbaa !92
  br label %zend_get_gc_buffer_add_obj.exit

zend_get_gc_buffer_add_obj.exit:                  ; preds = %zend_get_gc_buffer_add_zval.exit, %68
  %69 = phi ptr [ %62, %zend_get_gc_buffer_add_zval.exit ], [ %.pre37, %68 ]
  store ptr %64, ptr %69, align 8, !tbaa !24
  %70 = getelementptr inbounds nuw i8, ptr %69, i64 8
  store i32 776, ptr %70, align 8, !tbaa !24
  %71 = load ptr, ptr %13, align 8, !tbaa !92
  %72 = getelementptr inbounds nuw i8, ptr %71, i64 16
  store ptr %72, ptr %13, align 8, !tbaa !92
  %73 = getelementptr inbounds nuw i8, ptr %13, i64 16
  %74 = load ptr, ptr %73, align 8, !tbaa !160
  store ptr %74, ptr %1, align 8, !tbaa !161
  %75 = load ptr, ptr %13, align 8, !tbaa !92
  %76 = ptrtoint ptr %75 to i64
  %77 = ptrtoint ptr %74 to i64
  %78 = sub i64 %76, %77
  %79 = lshr exact i64 %78, 4
  %80 = trunc i64 %79 to i32
  br label %99

81:                                               ; preds = %6
  %82 = getelementptr inbounds nuw i8, ptr %0, i64 72
  store ptr %82, ptr %1, align 8, !tbaa !161
  br label %99

83:                                               ; preds = %3
  %84 = getelementptr inbounds nuw i8, ptr %0, i64 272
  %85 = load i8, ptr %84, align 8, !tbaa !99
  %86 = and i8 %85, 1
  %.not29 = icmp eq i8 %86, 0
  br i1 %.not29, label %88, label %87

87:                                               ; preds = %83
  store ptr null, ptr %1, align 8, !tbaa !161
  br label %99

88:                                               ; preds = %83
  %89 = tail call ptr @zend_get_gc_buffer_create() #11
  %90 = tail call ptr @zend_generator_frame_gc(ptr noundef %89, ptr noundef nonnull %0)
  %91 = getelementptr inbounds nuw i8, ptr %89, i64 16
  %92 = load ptr, ptr %91, align 8, !tbaa !160
  store ptr %92, ptr %1, align 8, !tbaa !161
  %93 = load ptr, ptr %89, align 8, !tbaa !92
  %94 = ptrtoint ptr %93 to i64
  %95 = ptrtoint ptr %92 to i64
  %96 = sub i64 %94, %95
  %97 = lshr exact i64 %96, 4
  %98 = trunc i64 %97 to i32
  br label %99

99:                                               ; preds = %zend_get_gc_buffer_add_obj.exit, %81, %88, %87
  %.sink = phi i32 [ %80, %zend_get_gc_buffer_add_obj.exit ], [ 3, %81 ], [ %98, %88 ], [ 0, %87 ]
  %.0 = phi ptr [ null, %zend_get_gc_buffer_add_obj.exit ], [ null, %81 ], [ %90, %88 ], [ null, %87 ]
  store i32 %.sink, ptr %2, align 4, !tbaa !108
  ret ptr %.0
}